(imatplotlib.font_manager
FontManager
p1
(dp2
S'afm_lookup_cache'
p3
(dp4
sS'ttflist'
p5
(lp6
ccopy_reg
_reconstructor
p7
(cmatplotlib.font_manager
FontEntry
p8
c__builtin__
object
p9
NtRp10
(dp11
S'style'
p12
S'normal'
p13
sS'name'
p14
S'cmb10'
p15
sS'weight'
p16
I400
sS'stretch'
p17
g13
sS'variant'
p18
g13
sS'fname'
p19
S'/usr/share/matplotlib/mpl-data/fonts/ttf/cmb10.ttf'
p20
sS'size'
p21
S'scalable'
p22
sbag7
(g8
g9
NtRp23
(dp24
g12
g13
sg14
S'cmex10'
p25
sg16
I400
sg17
g13
sg18
g13
sg19
S'/usr/share/matplotlib/mpl-data/fonts/ttf/cmex10.ttf'
p26
sg21
g22
sbag7
(g8
g9
NtRp27
(dp28
g12
S'italic'
p29
sg14
S'STIXNonUnicode'
p30
sg16
I400
sg17
g13
sg18
g13
sg19
S'/usr/share/matplotlib/mpl-data/fonts/ttf/STIXNonUniIta.ttf'
p31
sg21
g22
sbag7
(g8
g9
NtRp32
(dp33
g12
g13
sg14
S'STIXSizeOneSym'
p34
sg16
I400
sg17
g13
sg18
g13
sg19
S'/usr/share/matplotlib/mpl-data/fonts/ttf/STIXSizOneSymReg.ttf'
p35
sg21
g22
sbag7
(g8
g9
NtRp36
(dp37
g12
g13
sg14
S'STIXSizeThreeSym'
p38
sg16
I400
sg17
g13
sg18
g13
sg19
S'/usr/share/matplotlib/mpl-data/fonts/ttf/STIXSizThreeSymReg.ttf'
p39
sg21
g22
sbag7
(g8
g9
NtRp40
(dp41
g12
g13
sg14
S'STIXSizeTwoSym'
p42
sg16
I700
sg17
g13
sg18
g13
sg19
S'/usr/share/matplotlib/mpl-data/fonts/ttf/STIXSizTwoSymBol.ttf'
p43
sg21
g22
sbag7
(g8
g9
NtRp44
(dp45
g12
g13
sg14
S'cmtt10'
p46
sg16
I400
sg17
g13
sg18
g13
sg19
S'/usr/share/matplotlib/mpl-data/fonts/ttf/cmtt10.ttf'
p47
sg21
g22
sbag7
(g8
g9
NtRp48
(dp49
g12
g13
sg14
S'STIXGeneral'
p50
sg16
I400
sg17
g13
sg18
g13
sg19
S'/usr/share/matplotlib/mpl-data/fonts/ttf/STIXGeneral.ttf'
p51
sg21
g22
sbag7
(g8
g9
NtRp52
(dp53
g12
g13
sg14
S'STIXSizeThreeSym'
p54
sg16
I700
sg17
g13
sg18
g13
sg19
S'/usr/share/matplotlib/mpl-data/fonts/ttf/STIXSizThreeSymBol.ttf'
p55
sg21
g22
sbag7
(g8
g9
NtRp56
(dp57
g12
g13
sg14
S'STIXSizeFiveSym'
p58
sg16
I400
sg17
g13
sg18
g13
sg19
S'/usr/share/matplotlib/mpl-data/fonts/ttf/STIXSizFiveSymReg.ttf'
p59
sg21
g22
sbag7
(g8
g9
NtRp60
(dp61
g12
g13
sg14
S'STIXSizeOneSym'
p62
sg16
I700
sg17
g13
sg18
g13
sg19
S'/usr/share/matplotlib/mpl-data/fonts/ttf/STIXSizOneSymBol.ttf'
p63
sg21
g22
sbag7
(g8
g9
NtRp64
(dp65
g12
g13
sg14
S'STIXGeneral'
p66
sg16
I700
sg17
g13
sg18
g13
sg19
S'/usr/share/matplotlib/mpl-data/fonts/ttf/STIXGeneralBol.ttf'
p67
sg21
g22
sbag7
(g8
g9
NtRp68
(dp69
g12
g13
sg14
S'cmr10'
p70
sg16
I400
sg17
g13
sg18
g13
sg19
S'/usr/share/matplotlib/mpl-data/fonts/ttf/cmr10.ttf'
p71
sg21
g22
sbag7
(g8
g9
NtRp72
(dp73
g12
g13
sg14
S'STIXSizeTwoSym'
p74
sg16
I400
sg17
g13
sg18
g13
sg19
S'/usr/share/matplotlib/mpl-data/fonts/ttf/STIXSizTwoSymReg.ttf'
p75
sg21
g22
sbag7
(g8
g9
NtRp76
(dp77
g12
g13
sg14
S'STIXNonUnicode'
p78
sg16
I400
sg17
g13
sg18
g13
sg19
S'/usr/share/matplotlib/mpl-data/fonts/ttf/STIXNonUni.ttf'
p79
sg21
g22
sbag7
(g8
g9
NtRp80
(dp81
g12
g13
sg14
S'cmsy10'
p82
sg16
I400
sg17
g13
sg18
g13
sg19
S'/usr/share/matplotlib/mpl-data/fonts/ttf/cmsy10.ttf'
p83
sg21
g22
sbag7
(g8
g9
NtRp84
(dp85
g12
g29
sg14
S'STIXNonUnicode'
p86
sg16
I700
sg17
g13
sg18
g13
sg19
S'/usr/share/matplotlib/mpl-data/fonts/ttf/STIXNonUniBolIta.ttf'
p87
sg21
g22
sbag7
(g8
g9
NtRp88
(dp89
g12
g13
sg14
S'cmss10'
p90
sg16
I400
sg17
g13
sg18
g13
sg19
S'/usr/share/matplotlib/mpl-data/fonts/ttf/cmss10.ttf'
p91
sg21
g22
sbag7
(g8
g9
NtRp92
(dp93
g12
g13
sg14
S'STIXSizeFourSym'
p94
sg16
I700
sg17
g13
sg18
g13
sg19
S'/usr/share/matplotlib/mpl-data/fonts/ttf/STIXSizFourSymBol.ttf'
p95
sg21
g22
sbag7
(g8
g9
NtRp96
(dp97
g12
g29
sg14
S'STIXGeneral'
p98
sg16
I400
sg17
g13
sg18
g13
sg19
S'/usr/share/matplotlib/mpl-data/fonts/ttf/STIXGeneralItalic.ttf'
p99
sg21
g22
sbag7
(g8
g9
NtRp100
(dp101
g12
g13
sg14
S'cmmi10'
p102
sg16
I400
sg17
g13
sg18
g13
sg19
S'/usr/share/matplotlib/mpl-data/fonts/ttf/cmmi10.ttf'
p103
sg21
g22
sbag7
(g8
g9
NtRp104
(dp105
g12
g13
sg14
S'STIXNonUnicode'
p106
sg16
I700
sg17
g13
sg18
g13
sg19
S'/usr/share/matplotlib/mpl-data/fonts/ttf/STIXNonUniBol.ttf'
p107
sg21
g22
sbag7
(g8
g9
NtRp108
(dp109
g12
g29
sg14
S'STIXGeneral'
p110
sg16
I700
sg17
g13
sg18
g13
sg19
S'/usr/share/matplotlib/mpl-data/fonts/ttf/STIXGeneralBolIta.ttf'
p111
sg21
g22
sbag7
(g8
g9
NtRp112
(dp113
g12
g13
sg14
S'STIXSizeFourSym'
p114
sg16
I400
sg17
g13
sg18
g13
sg19
S'/usr/share/matplotlib/mpl-data/fonts/ttf/STIXSizFourSymReg.ttf'
p115
sg21
g22
sbag7
(g8
g9
NtRp116
(dp117
g12
g13
sg14
S'msbm10'
p118
sg16
I400
sg17
g13
sg18
g13
sg19
S'/usr/share/fonts/truetype/lyx/msbm10.ttf'
p119
sg21
g22
sbag7
(g8
g9
NtRp120
(dp121
g12
g13
sg14
S'msam10'
p122
sg16
I400
sg17
g13
sg18
g13
sg19
S'/usr/share/fonts/truetype/lyx/msam10.ttf'
p123
sg21
g22
sbag7
(g8
g9
NtRp124
(dp125
g12
g13
sg14
S'DejaVu Sans'
p126
sg16
I200
sg17
g13
sg18
g13
sg19
S'/usr/share/fonts/truetype/dejavu/DejaVuSans-ExtraLight.ttf'
p127
sg21
g22
sbag7
(g8
g9
NtRp128
(dp129
g12
g29
sg14
S'DejaVu Serif'
p130
sg16
I400
sg17
g13
sg18
g13
sg19
S'/usr/share/fonts/truetype/dejavu/DejaVuSerif-Italic.ttf'
p131
sg21
g22
sbag7
(g8
g9
NtRp132
(dp133
g12
S'oblique'
p134
sg14
S'DejaVu Sans Mono'
p135
sg16
I400
sg17
g13
sg18
g13
sg19
S'/usr/share/fonts/truetype/dejavu/DejaVuSansMono-Oblique.ttf'
p136
sg21
g22
sbag7
(g8
g9
NtRp137
(dp138
g12
g13
sg14
S'wasy10'
p139
sg16
I400
sg17
g13
sg18
g13
sg19
S'/usr/share/fonts/truetype/lyx/wasy10.ttf'
p140
sg21
g22
sbag7
(g8
g9
NtRp141
(dp142
g12
g29
sg14
S'FreeSerif'
p143
sg16
I700
sg17
g13
sg18
g13
sg19
S'/usr/share/fonts/truetype/freefont/FreeSerifBoldItalic.ttf'
p144
sg21
g22
sbag7
(g8
g9
NtRp145
(dp146
g12
g13
sg14
S'DejaVu Sans Mono'
p147
sg16
I700
sg17
g13
sg18
g13
sg19
S'/usr/share/fonts/truetype/ttf-dejavu/DejaVuSansMono-Bold.ttf'
p148
sg21
g22
sbag7
(g8
g9
NtRp149
(dp150
g12
g29
sg14
S'rsfs10'
p151
sg16
I400
sg17
g13
sg18
g13
sg19
S'/usr/share/fonts/truetype/lyx/rsfs10.ttf'
p152
sg21
g22
sbag7
(g8
g9
NtRp153
(dp154
g12
g13
sg14
S'DejaVu Sans'
p155
sg16
I400
sg17
g13
sg18
g13
sg19
S'/usr/share/fonts/truetype/dejavu/DejaVuSans.ttf'
p156
sg21
g22
sbag7
(g8
g9
NtRp157
(dp158
g12
g29
sg14
S'DejaVu Serif'
p159
sg16
I700
sg17
S'condensed'
p160
sg18
g13
sg19
S'/usr/share/fonts/truetype/dejavu/DejaVuSerifCondensed-BoldItalic.ttf'
p161
sg21
g22
sbag7
(g8
g9
NtRp162
(dp163
g12
g13
sg14
S'FreeSerif'
p164
sg16
I400
sg17
g13
sg18
g13
sg19
S'/usr/share/fonts/truetype/freefont/FreeSerif.ttf'
p165
sg21
g22
sbag7
(g8
g9
NtRp166
(dp167
g12
g13
sg14
S'DejaVu Serif'
p168
sg16
I400
sg17
g160
sg18
g13
sg19
S'/usr/share/fonts/truetype/dejavu/DejaVuSerifCondensed.ttf'
p169
sg21
g22
sbag7
(g8
g9
NtRp170
(dp171
g12
g13
sg14
S'DejaVu Sans'
p172
sg16
I400
sg17
g160
sg18
g13
sg19
S'/usr/share/fonts/truetype/ttf-dejavu/DejaVuSansCondensed.ttf'
p173
sg21
g22
sbag7
(g8
g9
NtRp174
(dp175
g12
g29
sg14
S'DejaVu Serif'
p176
sg16
I400
sg17
g160
sg18
g13
sg19
S'/usr/share/fonts/truetype/ttf-dejavu/DejaVuSerifCondensed-Italic.ttf'
p177
sg21
g22
sbag7
(g8
g9
NtRp178
(dp179
g12
g13
sg14
S'DejaVu Sans Mono'
p180
sg16
I400
sg17
g13
sg18
g13
sg19
S'/usr/share/fonts/truetype/dejavu/DejaVuSansMono.ttf'
p181
sg21
g22
sbag7
(g8
g9
NtRp182
(dp183
g12
g13
sg14
S'eufm10'
p184
sg16
I400
sg17
g13
sg18
g13
sg19
S'/usr/share/fonts/truetype/lyx/eufm10.ttf'
p185
sg21
g22
sbag7
(g8
g9
NtRp186
(dp187
g12
g29
sg14
S'DejaVu Serif'
p188
sg16
I700
sg17
g13
sg18
g13
sg19
S'/usr/share/fonts/truetype/ttf-dejavu/DejaVuSerif-BoldItalic.ttf'
p189
sg21
g22
sbag7
(g8
g9
NtRp190
(dp191
g12
g13
sg14
S'esint10'
p192
sg16
I400
sg17
g13
sg18
g13
sg19
S'/usr/share/fonts/truetype/lyx/esint10.ttf'
p193
sg21
g22
sbag7
(g8
g9
NtRp194
(dp195
g12
g134
sg14
S'DejaVu Sans'
p196
sg16
I400
sg17
g13
sg18
g13
sg19
S'/usr/share/fonts/truetype/dejavu/DejaVuSans-Oblique.ttf'
p197
sg21
g22
sbag7
(g8
g9
NtRp198
(dp199
g12
g134
sg14
S'DejaVu Sans'
p200
sg16
I700
sg17
g160
sg18
g13
sg19
S'/usr/share/fonts/truetype/dejavu/DejaVuSansCondensed-BoldOblique.ttf'
p201
sg21
g22
sbag7
(g8
g9
NtRp202
(dp203
g12
g134
sg14
S'DejaVu Sans'
p204
sg16
I400
sg17
g160
sg18
g13
sg19
S'/usr/share/fonts/truetype/ttf-dejavu/DejaVuSansCondensed-Oblique.ttf'
p205
sg21
g22
sbag7
(g8
g9
NtRp206
(dp207
g12
g13
sg14
S'DejaVu Serif'
p208
sg16
I700
sg17
g160
sg18
g13
sg19
S'/usr/share/fonts/truetype/ttf-dejavu/DejaVuSerifCondensed-Bold.ttf'
p209
sg21
g22
sbag7
(g8
g9
NtRp210
(dp211
g12
g13
sg14
S'DejaVu Sans'
p212
sg16
I700
sg17
g13
sg18
g13
sg19
S'/usr/share/fonts/truetype/dejavu/DejaVuSans-Bold.ttf'
p213
sg21
g22
sbag7
(g8
g9
NtRp214
(dp215
g12
g13
sg14
S'DejaVu Serif'
p216
sg16
I700
sg17
g13
sg18
g13
sg19
S'/usr/share/fonts/truetype/ttf-dejavu/DejaVuSerif-Bold.ttf'
p217
sg21
g22
sbag7
(g8
g9
NtRp218
(dp219
g12
g13
sg14
S'DejaVu Sans'
p220
sg16
I700
sg17
g160
sg18
g13
sg19
S'/usr/share/fonts/truetype/dejavu/DejaVuSansCondensed-Bold.ttf'
p221
sg21
g22
sbag7
(g8
g9
NtRp222
(dp223
g12
g13
sg14
S'DejaVu Serif'
p224
sg16
I400
sg17
g13
sg18
g13
sg19
S'/usr/share/fonts/truetype/ttf-dejavu/DejaVuSerif.ttf'
p225
sg21
g22
sbag7
(g8
g9
NtRp226
(dp227
g12
g134
sg14
S'FreeSans'
p228
sg16
I400
sg17
g13
sg18
g13
sg19
S'/usr/share/fonts/truetype/freefont/FreeSansOblique.ttf'
p229
sg21
g22
sbag7
(g8
g9
NtRp230
(dp231
g12
g13
sg14
S'FreeMono'
p232
sg16
I700
sg17
g13
sg18
g13
sg19
S'/usr/share/fonts/truetype/freefont/FreeMonoBold.ttf'
p233
sg21
g22
sbag7
(g8
g9
NtRp234
(dp235
g12
g134
sg14
S'FreeSans'
p236
sg16
I700
sg17
g13
sg18
g13
sg19
S'/usr/share/fonts/truetype/freefont/FreeSansBoldOblique.ttf'
p237
sg21
g22
sbag7
(g8
g9
NtRp238
(dp239
g12
g134
sg14
S'FreeMono'
p240
sg16
I400
sg17
g13
sg18
g13
sg19
S'/usr/share/fonts/truetype/freefont/FreeMonoOblique.ttf'
p241
sg21
g22
sbag7
(g8
g9
NtRp242
(dp243
g12
g13
sg14
S'FreeSerif'
p244
sg16
I700
sg17
g13
sg18
g13
sg19
S'/usr/share/fonts/truetype/freefont/FreeSerifBold.ttf'
p245
sg21
g22
sbag7
(g8
g9
NtRp246
(dp247
g12
g134
sg14
S'FreeMono'
p248
sg16
I700
sg17
g13
sg18
g13
sg19
S'/usr/share/fonts/truetype/freefont/FreeMonoBoldOblique.ttf'
p249
sg21
g22
sbag7
(g8
g9
NtRp250
(dp251
g12
g134
sg14
S'DejaVu Sans Mono'
p252
sg16
I700
sg17
g13
sg18
g13
sg19
S'/usr/share/fonts/truetype/dejavu/DejaVuSansMono-BoldOblique.ttf'
p253
sg21
g22
sbag7
(g8
g9
NtRp254
(dp255
g12
g13
sg14
S'FreeSans'
p256
sg16
I700
sg17
g13
sg18
g13
sg19
S'/usr/share/fonts/truetype/freefont/FreeSansBold.ttf'
p257
sg21
g22
sbag7
(g8
g9
NtRp258
(dp259
g12
g13
sg14
S'FreeSans'
p260
sg16
I400
sg17
g13
sg18
g13
sg19
S'/usr/share/fonts/truetype/freefont/FreeSans.ttf'
p261
sg21
g22
sbag7
(g8
g9
NtRp262
(dp263
g12
g134
sg14
S'DejaVu Sans'
p264
sg16
I700
sg17
g13
sg18
g13
sg19
S'/usr/share/fonts/truetype/dejavu/DejaVuSans-BoldOblique.ttf'
p265
sg21
g22
sbag7
(g8
g9
NtRp266
(dp267
g12
g29
sg14
S'FreeSerif'
p268
sg16
I400
sg17
g13
sg18
g13
sg19
S'/usr/share/fonts/truetype/freefont/FreeSerifItalic.ttf'
p269
sg21
g22
sbag7
(g8
g9
NtRp270
(dp271
g12
g13
sg14
S'FreeMono'
p272
sg16
I400
sg17
g13
sg18
g13
sg19
S'/usr/share/fonts/truetype/freefont/FreeMono.ttf'
p273
sg21
g22
sbasS'defaultFamily'
p274
(dp275
S'afm'
p276
S'Helvetica'
p277
sS'ttf'
p278
S'Bitstream Vera Sans'
p279
ssS'ttffiles'
p280
(lp281
S'/usr/share/matplotlib/mpl-data/fonts/ttf/cmb10.ttf'
p282
aS'/usr/share/matplotlib/mpl-data/fonts/ttf/cmex10.ttf'
p283
aS'/usr/share/matplotlib/mpl-data/fonts/ttf/STIXNonUniIta.ttf'
p284
aS'/usr/share/matplotlib/mpl-data/fonts/ttf/STIXSizOneSymReg.ttf'
p285
aS'/usr/share/matplotlib/mpl-data/fonts/ttf/STIXSizThreeSymReg.ttf'
p286
aS'/usr/share/matplotlib/mpl-data/fonts/ttf/STIXSizTwoSymBol.ttf'
p287
aS'/usr/share/matplotlib/mpl-data/fonts/ttf/cmtt10.ttf'
p288
aS'/usr/share/matplotlib/mpl-data/fonts/ttf/STIXGeneral.ttf'
p289
aS'/usr/share/matplotlib/mpl-data/fonts/ttf/STIXSizThreeSymBol.ttf'
p290
aS'/usr/share/matplotlib/mpl-data/fonts/ttf/STIXSizFiveSymReg.ttf'
p291
aS'/usr/share/matplotlib/mpl-data/fonts/ttf/STIXSizOneSymBol.ttf'
p292
aS'/usr/share/matplotlib/mpl-data/fonts/ttf/STIXGeneralBol.ttf'
p293
aS'/usr/share/matplotlib/mpl-data/fonts/ttf/cmr10.ttf'
p294
aS'/usr/share/matplotlib/mpl-data/fonts/ttf/STIXSizTwoSymReg.ttf'
p295
aS'/usr/share/matplotlib/mpl-data/fonts/ttf/STIXNonUni.ttf'
p296
aS'/usr/share/matplotlib/mpl-data/fonts/ttf/cmsy10.ttf'
p297
aS'/usr/share/matplotlib/mpl-data/fonts/ttf/STIXNonUniBolIta.ttf'
p298
aS'/usr/share/matplotlib/mpl-data/fonts/ttf/cmss10.ttf'
p299
aS'/usr/share/matplotlib/mpl-data/fonts/ttf/STIXSizFourSymBol.ttf'
p300
aS'/usr/share/matplotlib/mpl-data/fonts/ttf/STIXGeneralItalic.ttf'
p301
aS'/usr/share/matplotlib/mpl-data/fonts/ttf/cmmi10.ttf'
p302
aS'/usr/share/matplotlib/mpl-data/fonts/ttf/STIXNonUniBol.ttf'
p303
aS'/usr/share/matplotlib/mpl-data/fonts/ttf/STIXGeneralBolIta.ttf'
p304
aS'/usr/share/matplotlib/mpl-data/fonts/ttf/STIXSizFourSymReg.ttf'
p305
aS'/usr/share/fonts/truetype/lyx/msbm10.ttf'
p306
aS'/usr/share/fonts/truetype/lyx/msam10.ttf'
p307
aS'/usr/share/fonts/truetype/dejavu/DejaVuSans-ExtraLight.ttf'
p308
aS'/usr/share/fonts/truetype/dejavu/DejaVuSerif-Italic.ttf'
p309
aS'/usr/share/fonts/truetype/lyx/cmr10.ttf'
p310
aS'/usr/share/fonts/truetype/dejavu/DejaVuSansMono-Oblique.ttf'
p311
aS'/usr/share/fonts/truetype/lyx/wasy10.ttf'
p312
aS'/usr/share/fonts/truetype/freefont/FreeSerifBoldItalic.ttf'
p313
aS'/usr/share/fonts/truetype/ttf-dejavu/DejaVuSansMono-Bold.ttf'
p314
aS'/usr/share/fonts/truetype/lyx/rsfs10.ttf'
p315
aS'/usr/share/fonts/truetype/dejavu/DejaVuSans.ttf'
p316
aS'/usr/share/fonts/truetype/dejavu/DejaVuSerifCondensed-BoldItalic.ttf'
p317
aS'/usr/share/fonts/truetype/freefont/FreeSerif.ttf'
p318
aS'/usr/share/fonts/truetype/dejavu/DejaVuSerifCondensed.ttf'
p319
aS'/usr/share/fonts/truetype/ttf-dejavu/DejaVuSansCondensed.ttf'
p320
aS'/usr/share/fonts/truetype/ttf-dejavu/DejaVuSerifCondensed-Italic.ttf'
p321
aS'/usr/share/fonts/truetype/dejavu/DejaVuSansCondensed.ttf'
p322
aS'/usr/share/fonts/truetype/dejavu/DejaVuSansMono.ttf'
p323
aS'/usr/share/fonts/truetype/lyx/eufm10.ttf'
p324
aS'/usr/share/fonts/truetype/ttf-dejavu/DejaVuSerif-BoldItalic.ttf'
p325
aS'/usr/share/fonts/truetype/lyx/esint10.ttf'
p326
aS'/usr/share/fonts/truetype/dejavu/DejaVuSans-Oblique.ttf'
p327
aS'/usr/share/fonts/truetype/dejavu/DejaVuSansCondensed-BoldOblique.ttf'
p328
aS'/usr/share/fonts/truetype/ttf-dejavu/DejaVuSansMono.ttf'
p329
aS'/usr/share/fonts/truetype/ttf-dejavu/DejaVuSansMono-Oblique.ttf'
p330
aS'/usr/share/fonts/truetype/ttf-dejavu/DejaVuSansCondensed-Oblique.ttf'
p331
aS'/usr/share/fonts/truetype/dejavu/DejaVuSerif-BoldItalic.ttf'
p332
aS'/usr/share/fonts/truetype/ttf-dejavu/DejaVuSerifCondensed-Bold.ttf'
p333
aS'/usr/share/fonts/truetype/dejavu/DejaVuSans-Bold.ttf'
p334
aS'/usr/share/fonts/truetype/ttf-dejavu/DejaVuSerif-Bold.ttf'
p335
aS'/usr/share/fonts/truetype/dejavu/DejaVuSansCondensed-Bold.ttf'
p336
aS'/usr/share/fonts/truetype/ttf-dejavu/DejaVuSerif.ttf'
p337
aS'/usr/share/fonts/truetype/dejavu/DejaVuSerif-Bold.ttf'
p338
aS'/usr/share/fonts/truetype/freefont/FreeSansOblique.ttf'
p339
aS'/usr/share/fonts/truetype/ttf-dejavu/DejaVuSerifCondensed.ttf'
p340
aS'/usr/share/fonts/truetype/freefont/FreeMonoBold.ttf'
p341
aS'/usr/share/fonts/truetype/lyx/cmex10.ttf'
p342
aS'/usr/share/fonts/truetype/lyx/cmsy10.ttf'
p343
aS'/usr/share/fonts/truetype/freefont/FreeSansBoldOblique.ttf'
p344
aS'/usr/share/fonts/truetype/dejavu/DejaVuSerifCondensed-Bold.ttf'
p345
aS'/usr/share/fonts/truetype/ttf-dejavu/DejaVuSans-Oblique.ttf'
p346
aS'/usr/share/fonts/truetype/freefont/FreeMonoOblique.ttf'
p347
aS'/usr/share/fonts/truetype/dejavu/DejaVuSerif.ttf'
p348
aS'/usr/share/fonts/truetype/ttf-dejavu/DejaVuSerifCondensed-BoldItalic.ttf'
p349
aS'/usr/share/fonts/truetype/freefont/FreeSerifBold.ttf'
p350
aS'/usr/share/fonts/truetype/lyx/cmmi10.ttf'
p351
aS'/usr/share/fonts/truetype/freefont/FreeMonoBoldOblique.ttf'
p352
aS'/usr/share/fonts/truetype/dejavu/DejaVuSansMono-BoldOblique.ttf'
p353
aS'/usr/share/fonts/truetype/freefont/FreeSansBold.ttf'
p354
aS'/usr/share/fonts/truetype/freefont/FreeSans.ttf'
p355
aS'/usr/share/fonts/truetype/dejavu/DejaVuSansMono-Bold.ttf'
p356
aS'/usr/share/fonts/truetype/dejavu/DejaVuSans-BoldOblique.ttf'
p357
aS'/usr/share/fonts/truetype/ttf-dejavu/DejaVuSans-BoldOblique.ttf'
p358
aS'/usr/share/fonts/truetype/ttf-dejavu/DejaVuSans.ttf'
p359
aS'/usr/share/fonts/truetype/dejavu/DejaVuSansCondensed-Oblique.ttf'
p360
aS'/usr/share/fonts/truetype/ttf-dejavu/DejaVuSerif-Italic.ttf'
p361
aS'/usr/share/fonts/truetype/ttf-dejavu/DejaVuSansMono-BoldOblique.ttf'
p362
aS'/usr/share/fonts/truetype/freefont/FreeSerifItalic.ttf'
p363
aS'/usr/share/fonts/truetype/dejavu/DejaVuSerifCondensed-Italic.ttf'
p364
aS'/usr/share/fonts/truetype/ttf-dejavu/DejaVuSansCondensed-BoldOblique.ttf'
p365
aS'/usr/share/fonts/truetype/ttf-dejavu/DejaVuSansCondensed-Bold.ttf'
p366
aS'/usr/share/fonts/truetype/ttf-dejavu/DejaVuSans-Bold.ttf'
p367
aS'/usr/share/fonts/truetype/ttf-dejavu/DejaVuSans-ExtraLight.ttf'
p368
aS'/usr/share/fonts/truetype/freefont/FreeMono.ttf'
p369
asS'_FontManager__default_weight'
p370
g13
sS'_version'
p371
I101
sS'ttf_lookup_cache'
p372
(dp373
sS'default_size'
p374
NsS'defaultFont'
p375
(dp376
g276
S'/usr/share/matplotlib/mpl-data/fonts/afm/pagko8a.afm'
p377
sg278
g282
ssS'afmfiles'
p378
(lp379
g377
aS'/usr/share/matplotlib/mpl-data/fonts/afm/pzcmi8a.afm'
p380
aS'/usr/share/matplotlib/mpl-data/fonts/afm/phvl8a.afm'
p381
aS'/usr/share/matplotlib/mpl-data/fonts/afm/putbi8a.afm'
p382
aS'/usr/share/matplotlib/mpl-data/fonts/pdfcorefonts/Helvetica-BoldOblique.afm'
p383
aS'/usr/share/matplotlib/mpl-data/fonts/afm/phvro8an.afm'
p384
aS'/usr/share/matplotlib/mpl-data/fonts/afm/pbkd8a.afm'
p385
aS'/usr/share/matplotlib/mpl-data/fonts/afm/pncri8a.afm'
p386
aS'/usr/share/matplotlib/mpl-data/fonts/pdfcorefonts/Helvetica-Bold.afm'
p387
aS'/usr/share/matplotlib/mpl-data/fonts/pdfcorefonts/Times-BoldItalic.afm'
p388
aS'/usr/share/matplotlib/mpl-data/fonts/afm/pcrb8a.afm'
p389
aS'/usr/share/matplotlib/mpl-data/fonts/afm/phvr8a.afm'
p390
aS'/usr/share/matplotlib/mpl-data/fonts/afm/putb8a.afm'
p391
aS'/usr/share/matplotlib/mpl-data/fonts/afm/pncb8a.afm'
p392
aS'/usr/share/matplotlib/mpl-data/fonts/pdfcorefonts/Courier-Bold.afm'
p393
aS'/usr/share/matplotlib/mpl-data/fonts/afm/pncbi8a.afm'
p394
aS'/usr/share/matplotlib/mpl-data/fonts/afm/pagdo8a.afm'
p395
aS'/usr/share/matplotlib/mpl-data/fonts/afm/cmtt10.afm'
p396
aS'/usr/share/matplotlib/mpl-data/fonts/pdfcorefonts/Symbol.afm'
p397
aS'/usr/share/matplotlib/mpl-data/fonts/afm/phvr8an.afm'
p398
aS'/usr/share/matplotlib/mpl-data/fonts/afm/phvro8a.afm'
p399
aS'/usr/share/matplotlib/mpl-data/fonts/afm/ptmr8a.afm'
p400
aS'/usr/share/matplotlib/mpl-data/fonts/pdfcorefonts/Helvetica-Oblique.afm'
p401
aS'/usr/share/matplotlib/mpl-data/fonts/afm/pplbi8a.afm'
p402
aS'/usr/share/matplotlib/mpl-data/fonts/afm/phvb8an.afm'
p403
aS'/usr/share/matplotlib/mpl-data/fonts/afm/cmsy10.afm'
p404
aS'/usr/share/matplotlib/mpl-data/fonts/afm/pagk8a.afm'
p405
aS'/usr/share/matplotlib/mpl-data/fonts/pdfcorefonts/Courier-BoldOblique.afm'
p406
aS'/usr/share/matplotlib/mpl-data/fonts/afm/pcrr8a.afm'
p407
aS'/usr/share/matplotlib/mpl-data/fonts/afm/cmmi10.afm'
p408
aS'/usr/share/matplotlib/mpl-data/fonts/afm/pplb8a.afm'
p409
aS'/usr/share/matplotlib/mpl-data/fonts/afm/phvbo8an.afm'
p410
aS'/usr/share/matplotlib/mpl-data/fonts/afm/phvbo8a.afm'
p411
aS'/usr/share/matplotlib/mpl-data/fonts/afm/cmr10.afm'
p412
aS'/usr/share/matplotlib/mpl-data/fonts/pdfcorefonts/Times-Bold.afm'
p413
aS'/usr/share/matplotlib/mpl-data/fonts/afm/psyr.afm'
p414
aS'/usr/share/matplotlib/mpl-data/fonts/afm/phvlo8a.afm'
p415
aS'/usr/share/matplotlib/mpl-data/fonts/afm/phvb8a.afm'
p416
aS'/usr/share/matplotlib/mpl-data/fonts/afm/pzdr.afm'
p417
aS'/usr/share/matplotlib/mpl-data/fonts/afm/ptmri8a.afm'
p418
aS'/usr/share/matplotlib/mpl-data/fonts/afm/pplr8a.afm'
p419
aS'/usr/share/matplotlib/mpl-data/fonts/afm/pbkl8a.afm'
p420
aS'/usr/share/matplotlib/mpl-data/fonts/pdfcorefonts/Times-Roman.afm'
p421
aS'/usr/share/matplotlib/mpl-data/fonts/afm/pcrro8a.afm'
p422
aS'/usr/share/matplotlib/mpl-data/fonts/pdfcorefonts/ZapfDingbats.afm'
p423
aS'/usr/share/matplotlib/mpl-data/fonts/afm/ptmb8a.afm'
p424
aS'/usr/share/matplotlib/mpl-data/fonts/pdfcorefonts/Helvetica.afm'
p425
aS'/usr/share/matplotlib/mpl-data/fonts/afm/pplri8a.afm'
p426
aS'/usr/share/matplotlib/mpl-data/fonts/afm/ptmbi8a.afm'
p427
aS'/usr/share/matplotlib/mpl-data/fonts/afm/pbkli8a.afm'
p428
aS'/usr/share/matplotlib/mpl-data/fonts/pdfcorefonts/Courier-Oblique.afm'
p429
aS'/usr/share/matplotlib/mpl-data/fonts/afm/putr8a.afm'
p430
aS'/usr/share/matplotlib/mpl-data/fonts/afm/pagd8a.afm'
p431
aS'/usr/share/matplotlib/mpl-data/fonts/afm/pncr8a.afm'
p432
aS'/usr/share/matplotlib/mpl-data/fonts/pdfcorefonts/Times-Italic.afm'
p433
aS'/usr/share/matplotlib/mpl-data/fonts/afm/cmex10.afm'
p434
aS'/usr/share/matplotlib/mpl-data/fonts/afm/pbkdi8a.afm'
p435
aS'/usr/share/matplotlib/mpl-data/fonts/afm/putri8a.afm'
p436
aS'/usr/share/matplotlib/mpl-data/fonts/pdfcorefonts/Courier.afm'
p437
aS'/usr/share/matplotlib/mpl-data/fonts/afm/pcrbo8a.afm'
p438
asS'afmlist'
p439
(lp440
g7
(g8
g9
NtRp441
(dp442
g12
g29
sg14
S'ITC Avant Garde Gothic'
p443
sg16
I400
sg17
g13
sg18
g13
sg19
g377
sg21
g22
sbag7
(g8
g9
NtRp444
(dp445
g12
g29
sg14
S'ITC Zapf Chancery'
p446
sg16
I500
sg17
g13
sg18
g13
sg19
g380
sg21
g22
sbag7
(g8
g9
NtRp447
(dp448
g12
g13
sg14
S'Helvetica'
p449
sg16
I200
sg17
g13
sg18
g13
sg19
g381
sg21
g22
sbag7
(g8
g9
NtRp450
(dp451
g12
g29
sg14
S'Utopia'
p452
sg16
I700
sg17
g13
sg18
g13
sg19
g382
sg21
g22
sbag7
(g8
g9
NtRp453
(dp454
g12
g29
sg14
S'Helvetica'
p455
sg16
I700
sg17
g13
sg18
g13
sg19
g383
sg21
g22
sbag7
(g8
g9
NtRp456
(dp457
g12
g29
sg14
S'Helvetica'
p458
sg16
I500
sg17
g160
sg18
g13
sg19
g384
sg21
g22
sbag7
(g8
g9
NtRp459
(dp460
g12
g13
sg14
S'ITC Bookman'
p461
sg16
I600
sg17
g13
sg18
g13
sg19
g385
sg21
g22
sbag7
(g8
g9
NtRp462
(dp463
g12
g29
sg14
S'New Century Schoolbook'
p464
sg16
I500
sg17
g13
sg18
g13
sg19
g386
sg21
g22
sbag7
(g8
g9
NtRp465
(dp466
g12
g13
sg14
S'Helvetica'
p467
sg16
I700
sg17
g13
sg18
g13
sg19
g387
sg21
g22
sbag7
(g8
g9
NtRp468
(dp469
g12
g29
sg14
S'Times'
p470
sg16
I700
sg17
g13
sg18
g13
sg19
g388
sg21
g22
sbag7
(g8
g9
NtRp471
(dp472
g12
g13
sg14
S'Courier'
p473
sg16
I700
sg17
g13
sg18
g13
sg19
g389
sg21
g22
sbag7
(g8
g9
NtRp474
(dp475
g12
g13
sg14
S'Helvetica'
p476
sg16
I500
sg17
g13
sg18
g13
sg19
g390
sg21
g22
sbag7
(g8
g9
NtRp477
(dp478
g12
g13
sg14
S'Utopia'
p479
sg16
I700
sg17
g13
sg18
g13
sg19
g391
sg21
g22
sbag7
(g8
g9
NtRp480
(dp481
g12
g13
sg14
S'New Century Schoolbook'
p482
sg16
I700
sg17
g13
sg18
g13
sg19
g392
sg21
g22
sbag7
(g8
g9
NtRp483
(dp484
g12
g13
sg14
S'Courier'
p485
sg16
I700
sg17
g13
sg18
g13
sg19
g393
sg21
g22
sbag7
(g8
g9
NtRp486
(dp487
g12
g29
sg14
S'New Century Schoolbook'
p488
sg16
I700
sg17
g13
sg18
g13
sg19
g394
sg21
g22
sbag7
(g8
g9
NtRp489
(dp490
g12
g29
sg14
S'ITC Avant Garde Gothic'
p491
sg16
I600
sg17
g13
sg18
g13
sg19
g395
sg21
g22
sbag7
(g8
g9
NtRp492
(dp493
g12
g13
sg14
S'Computer Modern'
p494
sg16
I500
sg17
g13
sg18
g13
sg19
g396
sg21
g22
sbag7
(g8
g9
NtRp495
(dp496
g12
g13
sg14
S'Symbol'
p497
sg16
I500
sg17
g13
sg18
g13
sg19
g397
sg21
g22
sbag7
(g8
g9
NtRp498
(dp499
g12
g13
sg14
S'Helvetica'
p500
sg16
I500
sg17
g160
sg18
g13
sg19
g398
sg21
g22
sbag7
(g8
g9
NtRp501
(dp502
g12
g29
sg14
S'Helvetica'
p503
sg16
I500
sg17
g13
sg18
g13
sg19
g399
sg21
g22
sbag7
(g8
g9
NtRp504
(dp505
g12
g13
sg14
S'Times'
p506
sg16
I500
sg17
g13
sg18
g13
sg19
g400
sg21
g22
sbag7
(g8
g9
NtRp507
(dp508
g12
g29
sg14
S'Helvetica'
p509
sg16
I500
sg17
g13
sg18
g13
sg19
g401
sg21
g22
sbag7
(g8
g9
NtRp510
(dp511
g12
g29
sg14
S'Palatino'
p512
sg16
I700
sg17
g13
sg18
g13
sg19
g402
sg21
g22
sbag7
(g8
g9
NtRp513
(dp514
g12
g13
sg14
S'Helvetica'
p515
sg16
I700
sg17
g160
sg18
g13
sg19
g403
sg21
g22
sbag7
(g8
g9
NtRp516
(dp517
g12
g29
sg14
S'Computer Modern'
p518
sg16
I500
sg17
g13
sg18
g13
sg19
g404
sg21
g22
sbag7
(g8
g9
NtRp519
(dp520
g12
g13
sg14
S'ITC Avant Garde Gothic'
p521
sg16
I400
sg17
g13
sg18
g13
sg19
g405
sg21
g22
sbag7
(g8
g9
NtRp522
(dp523
g12
g29
sg14
S'Courier'
p524
sg16
I700
sg17
g13
sg18
g13
sg19
g406
sg21
g22
sbag7
(g8
g9
NtRp525
(dp526
g12
g13
sg14
S'Courier'
p527
sg16
I500
sg17
g13
sg18
g13
sg19
g407
sg21
g22
sbag7
(g8
g9
NtRp528
(dp529
g12
g29
sg14
S'Computer Modern'
p530
sg16
I500
sg17
g13
sg18
g13
sg19
g408
sg21
g22
sbag7
(g8
g9
NtRp531
(dp532
g12
g13
sg14
S'Palatino'
p533
sg16
I700
sg17
g13
sg18
g13
sg19
g409
sg21
g22
sbag7
(g8
g9
NtRp534
(dp535
g12
g29
sg14
S'Helvetica'
p536
sg16
I700
sg17
g160
sg18
g13
sg19
g410
sg21
g22
sbag7
(g8
g9
NtRp537
(dp538
g12
g29
sg14
S'Helvetica'
p539
sg16
I700
sg17
g13
sg18
g13
sg19
g411
sg21
g22
sbag7
(g8
g9
NtRp540
(dp541
g12
g13
sg14
S'Computer Modern'
p542
sg16
I500
sg17
g13
sg18
g13
sg19
g412
sg21
g22
sbag7
(g8
g9
NtRp543
(dp544
g12
g13
sg14
S'Times'
p545
sg16
I700
sg17
g13
sg18
g13
sg19
g413
sg21
g22
sbag7
(g8
g9
NtRp546
(dp547
g12
g13
sg14
S'Symbol'
p548
sg16
I500
sg17
g13
sg18
g13
sg19
g414
sg21
g22
sbag7
(g8
g9
NtRp549
(dp550
g12
g29
sg14
S'Helvetica'
p551
sg16
I200
sg17
g13
sg18
g13
sg19
g415
sg21
g22
sbag7
(g8
g9
NtRp552
(dp553
g12
g13
sg14
S'Helvetica'
p554
sg16
I700
sg17
g13
sg18
g13
sg19
g416
sg21
g22
sbag7
(g8
g9
NtRp555
(dp556
g12
g13
sg14
S'ITC Zapf Dingbats'
p557
sg16
I500
sg17
g13
sg18
g13
sg19
g417
sg21
g22
sbag7
(g8
g9
NtRp558
(dp559
g12
g29
sg14
S'Times'
p560
sg16
I500
sg17
g13
sg18
g13
sg19
g418
sg21
g22
sbag7
(g8
g9
NtRp561
(dp562
g12
g13
sg14
S'Palatino'
p563
sg16
I500
sg17
g13
sg18
g13
sg19
g419
sg21
g22
sbag7
(g8
g9
NtRp564
(dp565
g12
g13
sg14
S'ITC Bookman'
p566
sg16
I200
sg17
g13
sg18
g13
sg19
g420
sg21
g22
sbag7
(g8
g9
NtRp567
(dp568
g12
g13
sg14
S'Times'
p569
sg16
I500
sg17
g13
sg18
g13
sg19
g421
sg21
g22
sbag7
(g8
g9
NtRp570
(dp571
g12
g29
sg14
S'Courier'
p572
sg16
I500
sg17
g13
sg18
g13
sg19
g422
sg21
g22
sbag7
(g8
g9
NtRp573
(dp574
g12
g13
sg14
S'ZapfDingbats'
p575
sg16
I500
sg17
g13
sg18
g13
sg19
g423
sg21
g22
sbag7
(g8
g9
NtRp576
(dp577
g12
g13
sg14
S'Times'
p578
sg16
I700
sg17
g13
sg18
g13
sg19
g424
sg21
g22
sbag7
(g8
g9
NtRp579
(dp580
g12
g13
sg14
S'Helvetica'
p581
sg16
I500
sg17
g13
sg18
g13
sg19
g425
sg21
g22
sbag7
(g8
g9
NtRp582
(dp583
g12
g29
sg14
S'Palatino'
p584
sg16
I500
sg17
g13
sg18
g13
sg19
g426
sg21
g22
sbag7
(g8
g9
NtRp585
(dp586
g12
g29
sg14
S'Times'
p587
sg16
I700
sg17
g13
sg18
g13
sg19
g427
sg21
g22
sbag7
(g8
g9
NtRp588
(dp589
g12
g29
sg14
S'ITC Bookman'
p590
sg16
I200
sg17
g13
sg18
g13
sg19
g428
sg21
g22
sbag7
(g8
g9
NtRp591
(dp592
g12
g29
sg14
S'Courier'
p593
sg16
I500
sg17
g13
sg18
g13
sg19
g429
sg21
g22
sbag7
(g8
g9
NtRp594
(dp595
g12
g13
sg14
S'Utopia'
p596
sg16
I400
sg17
g13
sg18
g13
sg19
g430
sg21
g22
sbag7
(g8
g9
NtRp597
(dp598
g12
g13
sg14
S'ITC Avant Garde Gothic'
p599
sg16
I600
sg17
g13
sg18
g13
sg19
g431
sg21
g22
sbag7
(g8
g9
NtRp600
(dp601
g12
g13
sg14
S'New Century Schoolbook'
p602
sg16
I500
sg17
g13
sg18
g13
sg19
g432
sg21
g22
sbag7
(g8
g9
NtRp603
(dp604
g12
g29
sg14
S'Times'
p605
sg16
I500
sg17
g13
sg18
g13
sg19
g433
sg21
g22
sbag7
(g8
g9
NtRp606
(dp607
g12
g13
sg14
S'Computer Modern'
p608
sg16
I500
sg17
g13
sg18
g13
sg19
g434
sg21
g22
sbag7
(g8
g9
NtRp609
(dp610
g12
g29
sg14
S'ITC Bookman'
p611
sg16
I600
sg17
g13
sg18
g13
sg19
g435
sg21
g22
sbag7
(g8
g9
NtRp612
(dp613
g12
g29
sg14
S'Utopia'
p614
sg16
I400
sg17
g13
sg18
g13
sg19
g436
sg21
g22
sbag7
(g8
g9
NtRp615
(dp616
g12
g13
sg14
S'Courier'
p617
sg16
I500
sg17
g13
sg18
g13
sg19
g437
sg21
g22
sbag7
(g8
g9
NtRp618
(dp619
g12
g29
sg14
S'Courier'
p620
sg16
I700
sg17
g13
sg18
g13
sg19
g438
sg21
g22
sbasb.